target datalayout = "e-m:e-p270:32:32-p271:32:32-p272:64:64-i64:64-i128:128-f80:128-n8:16:32:64-S128"
target triple = "x86_64-pc-linux-gnu"

%struct.FlashSV2Context = type { ptr, ptr, ptr, ptr, ptr, ptr, ptr, i32, ptr, ptr, i32, i32, i32, i32, i32, i32, i32, i64, i32, i32, i32, i32, i8, i8, i8, %struct.Palette, %struct.FFZStream }
%struct.Palette = type { [128 x i32], [32768 x i8] }
%struct.FFZStream = type { %struct.z_stream_s, i32 }
%struct.z_stream_s = type { ptr, i32, i64, ptr, i32, i64, ptr, ptr, ptr, ptr, ptr, i32, i64, i64 }
%struct.Block = type { ptr, ptr, ptr, i32, ptr, i64, i8, i8, i8, i8, i8, i8, i8, i8 }

; Function Attrs: nounwind uwtable
define internal void @init_blocks(ptr noundef %0, ptr noundef %1, ptr noundef %2, ptr noundef %3) #1 {
  %5 = alloca ptr, align 8
  %6 = alloca ptr, align 8
  %7 = alloca ptr, align 8
  %8 = alloca ptr, align 8
  %9 = alloca i32, align 4
  %10 = alloca i32, align 4
  %11 = alloca ptr, align 8
  store ptr %0, ptr %5, align 8, !tbaa !29
  store ptr %1, ptr %6, align 8, !tbaa !77
  store ptr %2, ptr %7, align 8, !tbaa !62
  store ptr %3, ptr %8, align 8, !tbaa !62
  call void @llvm.lifetime.start.p0(i64 4, ptr %9) #11
  call void @llvm.lifetime.start.p0(i64 4, ptr %10) #11
  call void @llvm.lifetime.start.p0(i64 8, ptr %11) #11
  %12 = load ptr, ptr %6, align 8, !tbaa !77
  %13 = load ptr, ptr %5, align 8, !tbaa !29
  %14 = getelementptr inbounds nuw %struct.FlashSV2Context, ptr %13, i32 0, i32 16
  %15 = load i32, ptr %14, align 8, !tbaa !72
  %16 = load ptr, ptr %5, align 8, !tbaa !29
  %17 = getelementptr inbounds nuw %struct.FlashSV2Context, ptr %16, i32 0, i32 15
  %18 = load i32, ptr %17, align 4, !tbaa !71
  %19 = mul nsw i32 %15, %18
  %20 = sext i32 %19 to i64
  %21 = mul i64 %20, 56
  call void @llvm.memset.p0.i64(ptr align 8 %12, i8 0, i64 %21, i1 false)
  store i32 0, ptr %10, align 4, !tbaa !42
  br label %22

22:                                               ; preds = %146, %4
  %23 = load i32, ptr %10, align 4, !tbaa !42
  %24 = load ptr, ptr %5, align 8, !tbaa !29
  %25 = getelementptr inbounds nuw %struct.FlashSV2Context, ptr %24, i32 0, i32 16
  %26 = load i32, ptr %25, align 8, !tbaa !72
  %27 = icmp slt i32 %23, %26
  br i1 %27, label %28, label %149

28:                                               ; preds = %22
  store i32 0, ptr %9, align 4, !tbaa !42
  br label %29

29:                                               ; preds = %142, %28
  %30 = load i32, ptr %9, align 4, !tbaa !42
  %31 = load ptr, ptr %5, align 8, !tbaa !29
  %32 = getelementptr inbounds nuw %struct.FlashSV2Context, ptr %31, i32 0, i32 15
  %33 = load i32, ptr %32, align 4, !tbaa !71
  %34 = icmp slt i32 %30, %33
  br i1 %34, label %35, label %145

35:                                               ; preds = %29
  %36 = load ptr, ptr %6, align 8, !tbaa !77
  %37 = load i32, ptr %10, align 4, !tbaa !42
  %38 = load i32, ptr %9, align 4, !tbaa !42
  %39 = load ptr, ptr %5, align 8, !tbaa !29
  %40 = getelementptr inbounds nuw %struct.FlashSV2Context, ptr %39, i32 0, i32 16
  %41 = load i32, ptr %40, align 8, !tbaa !72
  %42 = mul nsw i32 %38, %41
  %43 = add nsw i32 %37, %42
  %44 = sext i32 %43 to i64
  %45 = getelementptr inbounds %struct.Block, ptr %36, i64 %44
  store ptr %45, ptr %11, align 8, !tbaa !77
  %46 = load i32, ptr %10, align 4, !tbaa !42
  %47 = load ptr, ptr %5, align 8, !tbaa !29
  %48 = getelementptr inbounds nuw %struct.FlashSV2Context, ptr %47, i32 0, i32 16
  %49 = load i32, ptr %48, align 8, !tbaa !72
  %50 = sub nsw i32 %49, 1
  %51 = icmp slt i32 %46, %50
  br i1 %51, label %52, label %56

52:                                               ; preds = %35
  %53 = load ptr, ptr %5, align 8, !tbaa !29
  %54 = getelementptr inbounds nuw %struct.FlashSV2Context, ptr %53, i32 0, i32 20
  %55 = load i32, ptr %54, align 8, !tbaa !69
  br label %66

56:                                               ; preds = %35
  %57 = load ptr, ptr %5, align 8, !tbaa !29
  %58 = getelementptr inbounds nuw %struct.FlashSV2Context, ptr %57, i32 0, i32 18
  %59 = load i32, ptr %58, align 8, !tbaa !44
  %60 = load i32, ptr %10, align 4, !tbaa !42
  %61 = load ptr, ptr %5, align 8, !tbaa !29
  %62 = getelementptr inbounds nuw %struct.FlashSV2Context, ptr %61, i32 0, i32 20
  %63 = load i32, ptr %62, align 8, !tbaa !69
  %64 = mul nsw i32 %60, %63
  %65 = sub nsw i32 %59, %64
  br label %66

66:                                               ; preds = %56, %52
  %67 = phi i32 [ %55, %52 ], [ %65, %56 ]
  %68 = trunc i32 %67 to i8
  %69 = load ptr, ptr %11, align 8, !tbaa !77
  %70 = getelementptr inbounds nuw %struct.Block, ptr %69, i32 0, i32 11
  store i8 %68, ptr %70, align 1, !tbaa !78
  %71 = load i32, ptr %9, align 4, !tbaa !42
  %72 = load ptr, ptr %5, align 8, !tbaa !29
  %73 = getelementptr inbounds nuw %struct.FlashSV2Context, ptr %72, i32 0, i32 15
  %74 = load i32, ptr %73, align 4, !tbaa !71
  %75 = sub nsw i32 %74, 1
  %76 = icmp slt i32 %71, %75
  br i1 %76, label %77, label %81

77:                                               ; preds = %66
  %78 = load ptr, ptr %5, align 8, !tbaa !29
  %79 = getelementptr inbounds nuw %struct.FlashSV2Context, ptr %78, i32 0, i32 21
  %80 = load i32, ptr %79, align 4, !tbaa !70
  br label %91

81:                                               ; preds = %66
  %82 = load ptr, ptr %5, align 8, !tbaa !29
  %83 = getelementptr inbounds nuw %struct.FlashSV2Context, ptr %82, i32 0, i32 19
  %84 = load i32, ptr %83, align 4, !tbaa !45
  %85 = load i32, ptr %9, align 4, !tbaa !42
  %86 = load ptr, ptr %5, align 8, !tbaa !29
  %87 = getelementptr inbounds nuw %struct.FlashSV2Context, ptr %86, i32 0, i32 21
  %88 = load i32, ptr %87, align 4, !tbaa !70
  %89 = mul nsw i32 %85, %88
  %90 = sub nsw i32 %84, %89
  br label %91

91:                                               ; preds = %81, %77
  %92 = phi i32 [ %80, %77 ], [ %90, %81 ]
  %93 = trunc i32 %92 to i8
  %94 = load ptr, ptr %11, align 8, !tbaa !77
  %95 = getelementptr inbounds nuw %struct.Block, ptr %94, i32 0, i32 12
  store i8 %93, ptr %95, align 2, !tbaa !80
  %96 = load i32, ptr %9, align 4, !tbaa !42
  %97 = trunc i32 %96 to i8
  %98 = load ptr, ptr %11, align 8, !tbaa !77
  %99 = getelementptr inbounds nuw %struct.Block, ptr %98, i32 0, i32 10
  store i8 %97, ptr %99, align 4, !tbaa !81
  %100 = load i32, ptr %10, align 4, !tbaa !42
  %101 = trunc i32 %100 to i8
  %102 = load ptr, ptr %11, align 8, !tbaa !77
  %103 = getelementptr inbounds nuw %struct.Block, ptr %102, i32 0, i32 9
  store i8 %101, ptr %103, align 1, !tbaa !82
  %104 = load ptr, ptr %7, align 8, !tbaa !62
  %105 = load ptr, ptr %11, align 8, !tbaa !77
  %106 = getelementptr inbounds nuw %struct.Block, ptr %105, i32 0, i32 0
  store ptr %104, ptr %106, align 8, !tbaa !83
  %107 = load ptr, ptr %8, align 8, !tbaa !62
  %108 = load ptr, ptr %11, align 8, !tbaa !77
  %109 = getelementptr inbounds nuw %struct.Block, ptr %108, i32 0, i32 4
  store ptr %107, ptr %109, align 8, !tbaa !84
  %110 = load ptr, ptr %11, align 8, !tbaa !77
  %111 = getelementptr inbounds nuw %struct.Block, ptr %110, i32 0, i32 11
  %112 = load i8, ptr %111, align 1, !tbaa !78
  %113 = zext i8 %112 to i32
  %114 = load ptr, ptr %11, align 8, !tbaa !77
  %115 = getelementptr inbounds nuw %struct.Block, ptr %114, i32 0, i32 12
  %116 = load i8, ptr %115, align 2, !tbaa !80
  %117 = zext i8 %116 to i32
  %118 = mul nsw i32 %113, %117
  %119 = mul nsw i32 %118, 3
  %120 = load ptr, ptr %7, align 8, !tbaa !62
  %121 = sext i32 %119 to i64
  %122 = getelementptr inbounds i8, ptr %120, i64 %121
  store ptr %122, ptr %7, align 8, !tbaa !62
  %123 = load ptr, ptr %8, align 8, !tbaa !62
  %124 = icmp ne ptr %123, null
  br i1 %124, label %125, label %139

125:                                              ; preds = %91
  %126 = load ptr, ptr %8, align 8, !tbaa !62
  %127 = load ptr, ptr %11, align 8, !tbaa !77
  %128 = getelementptr inbounds nuw %struct.Block, ptr %127, i32 0, i32 11
  %129 = load i8, ptr %128, align 1, !tbaa !78
  %130 = zext i8 %129 to i32
  %131 = load ptr, ptr %11, align 8, !tbaa !77
  %132 = getelementptr inbounds nuw %struct.Block, ptr %131, i32 0, i32 12
  %133 = load i8, ptr %132, align 2, !tbaa !80
  %134 = zext i8 %133 to i32
  %135 = mul nsw i32 %130, %134
  %136 = mul nsw i32 %135, 6
  %137 = sext i32 %136 to i64
  %138 = getelementptr inbounds i8, ptr %126, i64 %137
  br label %140

139:                                              ; preds = %91
  br label %140

140:                                              ; preds = %139, %125
  %141 = phi ptr [ %138, %125 ], [ null, %139 ]
  store ptr %141, ptr %8, align 8, !tbaa !62
  br label %142

142:                                              ; preds = %140
  %143 = load i32, ptr %9, align 4, !tbaa !42
  %144 = add nsw i32 %143, 1
  store i32 %144, ptr %9, align 4, !tbaa !42
  br label %29, !llvm.loop !85

145:                                              ; preds = %29
  br label %146

146:                                              ; preds = %145
  %147 = load i32, ptr %10, align 4, !tbaa !42
  %148 = add nsw i32 %147, 1
  store i32 %148, ptr %10, align 4, !tbaa !42
  br label %22, !llvm.loop !87

149:                                              ; preds = %22
  call void @llvm.lifetime.end.p0(i64 8, ptr %11) #11
  call void @llvm.lifetime.end.p0(i64 4, ptr %10) #11
  call void @llvm.lifetime.end.p0(i64 4, ptr %9) #11
  ret void
}